#include <math.h>
#include <stdio.h>
#include <stdlib.h>
#include <string.h>
#include <iostream>
using namespace std;

int main()
{
	char a[100],b[100];                          //?????????????????????????????
	cin.getline(a,100);
	char *p=a,*q=b;                              //?????????????????????
	for(;*p!='\0';)                              //?a???????????
	{
		if(*p==' ')
		{
			p++;                                 //??????????????
			if(*p==' ')                          //????????????????
				continue;
			else                                 //???????????????????????????b??
			{
				p--;
				*q++=*p++;
			}
		} 
		else                                     //????????????????????b??
			*q++=*p++;

	}
	*q='\0';                                     //??b???
	cout<<b;
	return 0;
}